; Function Attrs: mustprogress nounwind uwtable
define dso_local ptr @LLVMGetCallSiteStringAttribute(ptr noundef readonly captures(none) %0, i32 noundef %1, ptr noundef %2, i32 noundef %3) local_unnamed_addr #0 {
  %5 = alloca %"class.llvm::AttributeList", align 8
  %6 = zext i32 %3 to i64
  call void @llvm.lifetime.start.p0(i64 8, ptr nonnull %5)
  %7 = getelementptr inbounds nuw i8, ptr %0, i64 72
  %.sroa.0.0.copyload.i.i = load ptr, ptr %7, align 8
  store ptr %.sroa.0.0.copyload.i.i, ptr %5, align 8
  %8 = call ptr @_ZNK4llvm13AttributeList19getAttributeAtIndexEjNS_9StringRefE(ptr noundef nonnull align 8 dereferenceable(8) %5, i32 noundef %1, ptr %2, i64 %6) #35
  call void @llvm.lifetime.end.p0(i64 8, ptr nonnull %5)
  ret ptr %8
}